target datalayout = "e-m:e-p270:32:32-p271:32:32-p272:64:64-i64:64-i128:128-f80:128-n8:16:32:64-S128"
target triple = "x86_64-pc-linux-gnu"

%struct.XLogDumpPrivate = type { i32, i64, i64, i8 }
%struct.XLogReaderRoutine = type { ptr, ptr, ptr }
%struct.XLogReaderState = type { %struct.XLogReaderRoutine, i64, ptr, i64, i64, i64, i64, i64, i64, i64, i64, ptr, ptr, i64, i8, ptr, ptr, ptr, ptr, ptr, i32, %struct.WALSegmentContext, %struct.WALOpenSegment, i32, i64, i32, i64, i32, i64, i32, ptr, i32, ptr, i8, i8 }
%struct.WALSegmentContext = type { [1024 x i8], i32 }
%struct.WALOpenSegment = type { i32, i64, i32 }
%struct.WALReadError = type { i32, i32, i32, i32, %struct.WALOpenSegment }

@.str.107 = private unnamed_addr constant [13 x i8] c"%08X%08X%08X\00", align 1
@.str.108 = private unnamed_addr constant [45 x i8] c"could not read from file \22%s\22, offset %d: %m\00", align 1
@.str.109 = private unnamed_addr constant [56 x i8] c"could not read from file \22%s\22, offset %d: read %d of %d\00", align 1

; Function Attrs: inlinehint nounwind uwtable
define internal void @XLogFileName(ptr noundef %0, i32 noundef %1, i64 noundef %2, i32 noundef %3) #7 {
  %5 = alloca ptr, align 8
  %6 = alloca i32, align 4
  %7 = alloca i64, align 8
  %8 = alloca i32, align 4
  store ptr %0, ptr %5, align 8
  store i32 %1, ptr %6, align 4
  store i64 %2, ptr %7, align 8
  store i32 %3, ptr %8, align 4
  %9 = load ptr, ptr %5, align 8
  %10 = load i32, ptr %6, align 4
  %11 = load i64, ptr %7, align 8
  %12 = load i32, ptr %8, align 4
  %13 = sext i32 %12 to i64
  %14 = udiv i64 4294967296, %13
  %15 = udiv i64 %11, %14
  %16 = trunc i64 %15 to i32
  %17 = load i64, ptr %7, align 8
  %18 = load i32, ptr %8, align 4
  %19 = sext i32 %18 to i64
  %20 = udiv i64 4294967296, %19
  %21 = urem i64 %17, %20
  %22 = trunc i64 %21 to i32
  %23 = call i32 (ptr, i64, ptr, ...) @pg_snprintf(ptr noundef %9, i64 noundef 64, ptr noundef @.str.107, i32 noundef %10, i32 noundef %16, i32 noundef %22)
  ret void
}

; Function Attrs: nounwind uwtable
define internal i32 @WALDumpReadPage(ptr noundef %0, i64 noundef %1, i32 noundef %2, i64 noundef %3, ptr noundef %4) #0 {
  %6 = alloca i32, align 4
  %7 = alloca ptr, align 8
  %8 = alloca i64, align 8
  %9 = alloca i32, align 4
  %10 = alloca i64, align 8
  %11 = alloca ptr, align 8
  %12 = alloca ptr, align 8
  %13 = alloca i32, align 4
  %14 = alloca %struct.WALReadError, align 8
  %15 = alloca i32, align 4
  %16 = alloca ptr, align 8
  %17 = alloca [1024 x i8], align 16
  store ptr %0, ptr %7, align 8
  store i64 %1, ptr %8, align 8
  store i32 %2, ptr %9, align 4
  store i64 %3, ptr %10, align 8
  store ptr %4, ptr %11, align 8
  call void @llvm.lifetime.start.p0(i64 8, ptr %12) #10
  %18 = load ptr, ptr %7, align 8
  %19 = getelementptr inbounds nuw %struct.XLogReaderState, ptr %18, i32 0, i32 2
  %20 = load ptr, ptr %19, align 8
  store ptr %20, ptr %12, align 8
  call void @llvm.lifetime.start.p0(i64 4, ptr %13) #10
  store i32 8192, ptr %13, align 4
  call void @llvm.lifetime.start.p0(i64 40, ptr %14) #10
  %21 = load ptr, ptr %12, align 8
  %22 = getelementptr inbounds nuw %struct.XLogDumpPrivate, ptr %21, i32 0, i32 2
  %23 = load i64, ptr %22, align 8
  %24 = icmp ne i64 %23, 0
  br i1 %24, label %25, label %54

25:                                               ; preds = %5
  %26 = load i64, ptr %8, align 8
  %27 = add i64 %26, 8192
  %28 = load ptr, ptr %12, align 8
  %29 = getelementptr inbounds nuw %struct.XLogDumpPrivate, ptr %28, i32 0, i32 2
  %30 = load i64, ptr %29, align 8
  %31 = icmp ule i64 %27, %30
  br i1 %31, label %32, label %33

32:                                               ; preds = %25
  store i32 8192, ptr %13, align 4
  br label %53

33:                                               ; preds = %25
  %34 = load i64, ptr %8, align 8
  %35 = load i32, ptr %9, align 4
  %36 = sext i32 %35 to i64
  %37 = add i64 %34, %36
  %38 = load ptr, ptr %12, align 8
  %39 = getelementptr inbounds nuw %struct.XLogDumpPrivate, ptr %38, i32 0, i32 2
  %40 = load i64, ptr %39, align 8
  %41 = icmp ule i64 %37, %40
  br i1 %41, label %42, label %49

42:                                               ; preds = %33
  %43 = load ptr, ptr %12, align 8
  %44 = getelementptr inbounds nuw %struct.XLogDumpPrivate, ptr %43, i32 0, i32 2
  %45 = load i64, ptr %44, align 8
  %46 = load i64, ptr %8, align 8
  %47 = sub i64 %45, %46
  %48 = trunc i64 %47 to i32
  store i32 %48, ptr %13, align 4
  br label %52

49:                                               ; preds = %33
  %50 = load ptr, ptr %12, align 8
  %51 = getelementptr inbounds nuw %struct.XLogDumpPrivate, ptr %50, i32 0, i32 3
  store i8 1, ptr %51, align 8
  store i32 -1, ptr %6, align 4
  store i32 1, ptr %15, align 4
  br label %104

52:                                               ; preds = %42
  br label %53

53:                                               ; preds = %52, %32
  br label %54

54:                                               ; preds = %53, %5
  %55 = load ptr, ptr %7, align 8
  %56 = load ptr, ptr %11, align 8
  %57 = load i64, ptr %8, align 8
  %58 = load i32, ptr %13, align 4
  %59 = sext i32 %58 to i64
  %60 = load ptr, ptr %12, align 8
  %61 = getelementptr inbounds nuw %struct.XLogDumpPrivate, ptr %60, i32 0, i32 0
  %62 = load i32, ptr %61, align 8
  %63 = call zeroext i1 @WALRead(ptr noundef %55, ptr noundef %56, i64 noundef %57, i64 noundef %59, i32 noundef %62, ptr noundef %14)
  br i1 %63, label %102, label %64

64:                                               ; preds = %54
  call void @llvm.lifetime.start.p0(i64 8, ptr %16) #10
  %65 = getelementptr inbounds nuw %struct.WALReadError, ptr %14, i32 0, i32 4
  store ptr %65, ptr %16, align 8
  call void @llvm.lifetime.start.p0(i64 1024, ptr %17) #10
  %66 = getelementptr inbounds [1024 x i8], ptr %17, i64 0, i64 0
  %67 = load ptr, ptr %16, align 8
  %68 = getelementptr inbounds nuw %struct.WALOpenSegment, ptr %67, i32 0, i32 2
  %69 = load i32, ptr %68, align 8
  %70 = load ptr, ptr %16, align 8
  %71 = getelementptr inbounds nuw %struct.WALOpenSegment, ptr %70, i32 0, i32 1
  %72 = load i64, ptr %71, align 8
  %73 = load ptr, ptr %7, align 8
  %74 = getelementptr inbounds nuw %struct.XLogReaderState, ptr %73, i32 0, i32 21
  %75 = getelementptr inbounds nuw %struct.WALSegmentContext, ptr %74, i32 0, i32 1
  %76 = load i32, ptr %75, align 4
  call void @XLogFileName(ptr noundef %66, i32 noundef %69, i64 noundef %72, i32 noundef %76)
  %77 = getelementptr inbounds nuw %struct.WALReadError, ptr %14, i32 0, i32 0
  %78 = load i32, ptr %77, align 8
  %79 = icmp ne i32 %78, 0
  br i1 %79, label %80, label %90

80:                                               ; preds = %64
  %81 = getelementptr inbounds nuw %struct.WALReadError, ptr %14, i32 0, i32 0
  %82 = load i32, ptr %81, align 8
  %83 = call ptr @__errno_location() #13
  store i32 %82, ptr %83, align 4
  br label %84

84:                                               ; preds = %80
  %85 = getelementptr inbounds [1024 x i8], ptr %17, i64 0, i64 0
  %86 = getelementptr inbounds nuw %struct.WALReadError, ptr %14, i32 0, i32 1
  %87 = load i32, ptr %86, align 4
  call void (i32, i32, ptr, ...) @pg_log_generic(i32 noundef 4, i32 noundef 0, ptr noundef @.str.108, ptr noundef %85, i32 noundef %87)
  call void @exit(i32 noundef 1) #12
  unreachable

88:                                               ; No predecessors!
  br label %89

89:                                               ; preds = %88
  br label %101

90:                                               ; preds = %64
  br label %91

91:                                               ; preds = %90
  %92 = getelementptr inbounds [1024 x i8], ptr %17, i64 0, i64 0
  %93 = getelementptr inbounds nuw %struct.WALReadError, ptr %14, i32 0, i32 1
  %94 = load i32, ptr %93, align 4
  %95 = getelementptr inbounds nuw %struct.WALReadError, ptr %14, i32 0, i32 3
  %96 = load i32, ptr %95, align 4
  %97 = getelementptr inbounds nuw %struct.WALReadError, ptr %14, i32 0, i32 2
  %98 = load i32, ptr %97, align 8
  call void (i32, i32, ptr, ...) @pg_log_generic(i32 noundef 4, i32 noundef 0, ptr noundef @.str.109, ptr noundef %92, i32 noundef %94, i32 noundef %96, i32 noundef %98)
  call void @exit(i32 noundef 1) #12
  unreachable

99:                                               ; No predecessors!
  br label %100

100:                                              ; preds = %99
  br label %101

101:                                              ; preds = %100, %89
  call void @llvm.lifetime.end.p0(i64 1024, ptr %17) #10
  call void @llvm.lifetime.end.p0(i64 8, ptr %16) #10
  br label %102

102:                                              ; preds = %101, %54
  %103 = load i32, ptr %13, align 4
  store i32 %103, ptr %6, align 4
  store i32 1, ptr %15, align 4
  br label %104

104:                                              ; preds = %102, %49
  call void @llvm.lifetime.end.p0(i64 40, ptr %14) #10
  call void @llvm.lifetime.end.p0(i64 4, ptr %13) #10
  call void @llvm.lifetime.end.p0(i64 8, ptr %12) #10
  %105 = load i32, ptr %6, align 4
  ret i32 %105
}