; Function Attrs: nounwind uwtable
define internal i32 @WALDumpReadPage(ptr noundef %0, i64 noundef %1, i32 noundef %2, i64 %3, ptr noundef %4) #0 {
  %6 = alloca %struct.WALReadError, align 8
  %7 = alloca [1024 x i8], align 16
  %8 = getelementptr inbounds nuw i8, ptr %0, i64 32
  %9 = load ptr, ptr %8, align 8
  call void @llvm.lifetime.start.p0(i64 40, ptr nonnull %6) #16
  %10 = getelementptr inbounds nuw i8, ptr %9, i64 16
  %11 = load i64, ptr %10, align 8
  %.not = icmp ne i64 %11, 0
  %12 = add i64 %1, 8192
  %.not22 = icmp ugt i64 %12, %11
  %or.cond = and i1 %.not, %.not22
  br i1 %or.cond, label %13, label %21

13:                                               ; preds = %5
  %14 = sext i32 %2 to i64
  %15 = add i64 %1, %14
  %.not23 = icmp ugt i64 %15, %11
  br i1 %.not23, label %19, label %16

16:                                               ; preds = %13
  %17 = sub i64 %11, %1
  %18 = trunc i64 %17 to i32
  br label %21

19:                                               ; preds = %13
  %20 = getelementptr inbounds nuw i8, ptr %9, i64 24
  store i8 1, ptr %20, align 8
  br label %51

21:                                               ; preds = %16, %5
  %.019 = phi i32 [ %18, %16 ], [ 8192, %5 ]
  %22 = sext i32 %.019 to i64
  %23 = load i32, ptr %9, align 8
  %24 = call zeroext i1 @WALRead(ptr noundef nonnull %0, ptr noundef %4, i64 noundef %1, i64 noundef %22, i32 noundef %23, ptr noundef nonnull %6) #16
  br i1 %24, label %51, label %25

25:                                               ; preds = %21
  call void @llvm.lifetime.start.p0(i64 1024, ptr nonnull %7) #16
  %26 = getelementptr inbounds nuw i8, ptr %6, i64 32
  %27 = load i32, ptr %26, align 8
  %28 = getelementptr inbounds nuw i8, ptr %6, i64 24
  %29 = load i64, ptr %28, align 8
  %30 = getelementptr inbounds nuw i8, ptr %0, i64 1204
  %31 = load i32, ptr %30, align 4
  %32 = sext i32 %31 to i64
  %33 = udiv i64 4294967296, %32
  %34 = udiv i64 %29, %33
  %35 = trunc i64 %34 to i32
  %36 = urem i64 %29, %33
  %37 = trunc nuw i64 %36 to i32
  %38 = call i32 (ptr, i64, ptr, ...) @pg_snprintf(ptr noundef nonnull %7, i64 noundef 64, ptr noundef nonnull @.str.107, i32 noundef %27, i32 noundef %35, i32 noundef %37) #16
  %39 = load i32, ptr %6, align 8
  %.not24 = icmp eq i32 %39, 0
  br i1 %.not24, label %44, label %40

40:                                               ; preds = %25
  %41 = tail call ptr @__errno_location() #19
  store i32 %39, ptr %41, align 4
  %42 = getelementptr inbounds nuw i8, ptr %6, i64 4
  %43 = load i32, ptr %42, align 4
  call void (i32, i32, ptr, ...) @pg_log_generic(i32 noundef 4, i32 noundef 0, ptr noundef nonnull @.str.108, ptr noundef nonnull %7, i32 noundef %43) #16
  call void @exit(i32 noundef 1) #20
  unreachable

44:                                               ; preds = %25
  %45 = getelementptr inbounds nuw i8, ptr %6, i64 4
  %46 = load i32, ptr %45, align 4
  %47 = getelementptr inbounds nuw i8, ptr %6, i64 12
  %48 = load i32, ptr %47, align 4
  %49 = getelementptr inbounds nuw i8, ptr %6, i64 8
  %50 = load i32, ptr %49, align 8
  call void (i32, i32, ptr, ...) @pg_log_generic(i32 noundef 4, i32 noundef 0, ptr noundef nonnull @.str.109, ptr noundef nonnull %7, i32 noundef %46, i32 noundef %48, i32 noundef %50) #16
  call void @exit(i32 noundef 1) #20
  unreachable

51:                                               ; preds = %21, %19
  %.0 = phi i32 [ -1, %19 ], [ %.019, %21 ]
  call void @llvm.lifetime.end.p0(i64 40, ptr nonnull %6) #16
  ret i32 %.0
}